target datalayout = "e-m:e-p270:32:32-p271:32:32-p272:64:64-i64:64-i128:128-f80:128-n8:16:32:64-S128"
target triple = "x86_64-pc-linux-gnu"

%struct.evthread_lock_callbacks = type { i32, i32, ptr, ptr, ptr, ptr }
%struct.evbuffer = type { ptr, ptr, ptr, i64, i64, i64, i64, ptr, i8, i32, ptr, i32, %struct.event_callback, %struct.evbuffer_cb_queue, ptr }
%struct.event_callback = type { %struct.anon, i16, i8, i8, %union.anon, ptr }
%struct.anon = type { ptr, ptr }
%union.anon = type { ptr }
%struct.evbuffer_cb_queue = type { ptr }
%struct.iovec = type { ptr, i64 }

@evthread_lock_fns_ = external global %struct.evthread_lock_callbacks, align 8

; Function Attrs: nounwind uwtable
define i64 @evbuffer_add_iovec(ptr noundef %0, ptr noundef %1, i32 noundef %2) #0 {
  %4 = alloca ptr, align 8
  %5 = alloca ptr, align 8
  %6 = alloca i32, align 4
  %7 = alloca i32, align 4
  %8 = alloca i64, align 8
  %9 = alloca i64, align 8
  store ptr %0, ptr %4, align 8
  store ptr %1, ptr %5, align 8
  store i32 %2, ptr %6, align 4
  call void @llvm.lifetime.start.p0(i64 4, ptr %7) #10
  call void @llvm.lifetime.start.p0(i64 8, ptr %8) #10
  call void @llvm.lifetime.start.p0(i64 8, ptr %9) #10
  br label %10

10:                                               ; preds = %3
  br label %11

11:                                               ; preds = %10
  %12 = load ptr, ptr %4, align 8
  %13 = getelementptr inbounds nuw %struct.evbuffer, ptr %12, i32 0, i32 7
  %14 = load ptr, ptr %13, align 8
  %15 = icmp ne ptr %14, null
  br i1 %15, label %16, label %22

16:                                               ; preds = %11
  %17 = load ptr, ptr getelementptr inbounds nuw (%struct.evthread_lock_callbacks, ptr @evthread_lock_fns_, i32 0, i32 4), align 8
  %18 = load ptr, ptr %4, align 8
  %19 = getelementptr inbounds nuw %struct.evbuffer, ptr %18, i32 0, i32 7
  %20 = load ptr, ptr %19, align 8
  %21 = call i32 %17(i32 noundef 0, ptr noundef %20)
  br label %22

22:                                               ; preds = %16, %11
  br label %23

23:                                               ; preds = %22
  br label %24

24:                                               ; preds = %23
  br label %25

25:                                               ; preds = %24
  br label %26

26:                                               ; preds = %25
  store i64 0, ptr %9, align 8
  store i64 0, ptr %8, align 8
  store i32 0, ptr %7, align 4
  br label %27

27:                                               ; preds = %40, %26
  %28 = load i32, ptr %7, align 4
  %29 = load i32, ptr %6, align 4
  %30 = icmp slt i32 %28, %29
  br i1 %30, label %31, label %43

31:                                               ; preds = %27
  %32 = load ptr, ptr %5, align 8
  %33 = load i32, ptr %7, align 4
  %34 = sext i32 %33 to i64
  %35 = getelementptr inbounds %struct.iovec, ptr %32, i64 %34
  %36 = getelementptr inbounds nuw %struct.iovec, ptr %35, i32 0, i32 1
  %37 = load i64, ptr %36, align 8
  %38 = load i64, ptr %9, align 8
  %39 = add i64 %38, %37
  store i64 %39, ptr %9, align 8
  br label %40

40:                                               ; preds = %31
  %41 = load i32, ptr %7, align 4
  %42 = add nsw i32 %41, 1
  store i32 %42, ptr %7, align 4
  br label %27, !llvm.loop !7

43:                                               ; preds = %27
  %44 = load ptr, ptr %4, align 8
  %45 = load i64, ptr %9, align 8
  %46 = call i32 @evbuffer_expand_fast_(ptr noundef %44, i64 noundef %45, i32 noundef 2)
  %47 = icmp slt i32 %46, 0
  br i1 %47, label %48, label %49

48:                                               ; preds = %43
  br label %84

49:                                               ; preds = %43
  store i32 0, ptr %7, align 4
  br label %50

50:                                               ; preds = %80, %49
  %51 = load i32, ptr %7, align 4
  %52 = load i32, ptr %6, align 4
  %53 = icmp slt i32 %51, %52
  br i1 %53, label %54, label %83

54:                                               ; preds = %50
  %55 = load ptr, ptr %4, align 8
  %56 = load ptr, ptr %5, align 8
  %57 = load i32, ptr %7, align 4
  %58 = sext i32 %57 to i64
  %59 = getelementptr inbounds %struct.iovec, ptr %56, i64 %58
  %60 = getelementptr inbounds nuw %struct.iovec, ptr %59, i32 0, i32 0
  %61 = load ptr, ptr %60, align 8
  %62 = load ptr, ptr %5, align 8
  %63 = load i32, ptr %7, align 4
  %64 = sext i32 %63 to i64
  %65 = getelementptr inbounds %struct.iovec, ptr %62, i64 %64
  %66 = getelementptr inbounds nuw %struct.iovec, ptr %65, i32 0, i32 1
  %67 = load i64, ptr %66, align 8
  %68 = call i32 @evbuffer_add(ptr noundef %55, ptr noundef %61, i64 noundef %67)
  %69 = icmp slt i32 %68, 0
  br i1 %69, label %70, label %71

70:                                               ; preds = %54
  br label %84

71:                                               ; preds = %54
  %72 = load ptr, ptr %5, align 8
  %73 = load i32, ptr %7, align 4
  %74 = sext i32 %73 to i64
  %75 = getelementptr inbounds %struct.iovec, ptr %72, i64 %74
  %76 = getelementptr inbounds nuw %struct.iovec, ptr %75, i32 0, i32 1
  %77 = load i64, ptr %76, align 8
  %78 = load i64, ptr %8, align 8
  %79 = add i64 %78, %77
  store i64 %79, ptr %8, align 8
  br label %80

80:                                               ; preds = %71
  %81 = load i32, ptr %7, align 4
  %82 = add nsw i32 %81, 1
  store i32 %82, ptr %7, align 4
  br label %50, !llvm.loop !8

83:                                               ; preds = %50
  br label %84

84:                                               ; preds = %83, %70, %48
  br label %85

85:                                               ; preds = %84
  br label %86

86:                                               ; preds = %85
  %87 = load ptr, ptr %4, align 8
  %88 = getelementptr inbounds nuw %struct.evbuffer, ptr %87, i32 0, i32 7
  %89 = load ptr, ptr %88, align 8
  %90 = icmp ne ptr %89, null
  br i1 %90, label %91, label %97

91:                                               ; preds = %86
  %92 = load ptr, ptr getelementptr inbounds nuw (%struct.evthread_lock_callbacks, ptr @evthread_lock_fns_, i32 0, i32 5), align 8
  %93 = load ptr, ptr %4, align 8
  %94 = getelementptr inbounds nuw %struct.evbuffer, ptr %93, i32 0, i32 7
  %95 = load ptr, ptr %94, align 8
  %96 = call i32 %92(i32 noundef 0, ptr noundef %95)
  br label %97

97:                                               ; preds = %91, %86
  br label %98

98:                                               ; preds = %97
  br label %99

99:                                               ; preds = %98
  br label %100

100:                                              ; preds = %99
  br label %101

101:                                              ; preds = %100
  %102 = load i64, ptr %8, align 8
  call void @llvm.lifetime.end.p0(i64 8, ptr %9) #10
  call void @llvm.lifetime.end.p0(i64 8, ptr %8) #10
  call void @llvm.lifetime.end.p0(i64 4, ptr %7) #10
  ret i64 %102
}