; Function Attrs: nounwind uwtable
define i64 @evbuffer_add_iovec(ptr noundef %0, ptr noundef readonly captures(none) %1, i32 noundef %2) local_unnamed_addr #1 {
  %4 = getelementptr inbounds nuw i8, ptr %0, i64 56
  %5 = load ptr, ptr %4, align 8
  %.not = icmp eq ptr %5, null
  br i1 %.not, label %9, label %6

6:                                                ; preds = %3
  %7 = load ptr, ptr getelementptr inbounds nuw (i8, ptr @evthread_lock_fns_, i64 24), align 8
  %8 = tail call i32 %7(i32 noundef 0, ptr noundef nonnull %5) #16
  br label %9

9:                                                ; preds = %6, %3
  %10 = icmp sgt i32 %2, 0
  br i1 %10, label %.lr.ph.preheader, label %._crit_edge.thread

._crit_edge.thread:                               ; preds = %9
  %11 = tail call i32 @evbuffer_expand_fast_(ptr noundef nonnull %0, i64 noundef 0, i32 noundef 2)
  br label %.loopexit

.lr.ph.preheader:                                 ; preds = %9
  %wide.trip.count = zext nneg i32 %2 to i64
  br label %.lr.ph

.lr.ph:                                           ; preds = %.lr.ph.preheader, %.lr.ph
  %indvars.iv = phi i64 [ 0, %.lr.ph.preheader ], [ %indvars.iv.next, %.lr.ph ]
  %.031 = phi i64 [ 0, %.lr.ph.preheader ], [ %14, %.lr.ph ]
  %12 = getelementptr inbounds nuw %struct.iovec, ptr %1, i64 %indvars.iv, i32 1
  %13 = load i64, ptr %12, align 8
  %14 = add i64 %13, %.031
  %indvars.iv.next = add nuw nsw i64 %indvars.iv, 1
  %exitcond.not = icmp eq i64 %indvars.iv.next, %wide.trip.count
  br i1 %exitcond.not, label %._crit_edge, label %.lr.ph, !llvm.loop !7

._crit_edge:                                      ; preds = %.lr.ph
  %15 = tail call i32 @evbuffer_expand_fast_(ptr noundef %0, i64 noundef %14, i32 noundef 2)
  %16 = icmp sgt i32 %15, -1
  br i1 %16, label %.lr.ph34.preheader, label %.loopexit

.lr.ph34.preheader:                               ; preds = %._crit_edge
  %wide.trip.count42 = zext nneg i32 %2 to i64
  br label %.lr.ph34

.lr.ph34:                                         ; preds = %.lr.ph34.preheader, %23
  %indvars.iv39 = phi i64 [ 0, %.lr.ph34.preheader ], [ %indvars.iv.next40, %23 ]
  %.02333 = phi i64 [ 0, %.lr.ph34.preheader ], [ %25, %23 ]
  %17 = getelementptr inbounds nuw %struct.iovec, ptr %1, i64 %indvars.iv39
  %18 = load ptr, ptr %17, align 8
  %19 = getelementptr inbounds nuw i8, ptr %17, i64 8
  %20 = load i64, ptr %19, align 8
  %21 = tail call i32 @evbuffer_add(ptr noundef %0, ptr noundef %18, i64 noundef %20)
  %22 = icmp slt i32 %21, 0
  br i1 %22, label %.loopexit, label %23

23:                                               ; preds = %.lr.ph34
  %24 = load i64, ptr %19, align 8
  %25 = add i64 %24, %.02333
  %indvars.iv.next40 = add nuw nsw i64 %indvars.iv39, 1
  %exitcond43.not = icmp eq i64 %indvars.iv.next40, %wide.trip.count42
  br i1 %exitcond43.not, label %.loopexit, label %.lr.ph34, !llvm.loop !8

.loopexit:                                        ; preds = %.lr.ph34, %23, %._crit_edge.thread, %._crit_edge
  %.1 = phi i64 [ 0, %._crit_edge ], [ 0, %._crit_edge.thread ], [ %.02333, %.lr.ph34 ], [ %25, %23 ]
  %26 = load ptr, ptr %4, align 8
  %.not29 = icmp eq ptr %26, null
  br i1 %.not29, label %30, label %27

27:                                               ; preds = %.loopexit
  %28 = load ptr, ptr getelementptr inbounds nuw (i8, ptr @evthread_lock_fns_, i64 32), align 8
  %29 = tail call i32 %28(i32 noundef 0, ptr noundef nonnull %26) #16
  br label %30

30:                                               ; preds = %27, %.loopexit
  ret i64 %.1
}